target datalayout = "e-m:e-p270:32:32-p271:32:32-p272:64:64-i64:64-i128:128-f80:128-n8:16:32:64-S128"
target triple = "x86_64-pc-linux-gnu"

@hf_afs_fs_status_clientmodtime = internal global i32 0, align 4
@hf_afs_fs_status_servermodtime = internal global i32 0, align 4
@hf_afs_fs_status_owner = internal global i32 0, align 4
@hf_afs_fs_status_group = internal global i32 0, align 4
@hf_afs_fs_status_mode = internal global i32 0, align 4
@hf_afs_fs_status_segsize = internal global i32 0, align 4
@hf_afs_fs_status_interfaceversion = internal global i32 0, align 4
@hf_afs_fs_status_filetype = internal global i32 0, align 4
@hf_afs_fs_status_author = internal global i32 0, align 4
@hf_afs_fs_status_calleraccess = internal global i32 0, align 4
@hf_afs_fs_status_anonymousaccess = internal global i32 0, align 4
@hf_afs_fs_status_parentvnode = internal global i32 0, align 4
@hf_afs_fs_status_parentunique = internal global i32 0, align 4
@hf_afs_fs_status_dataversion = internal global i32 0, align 4
@hf_afs_fs_status_dataversionhigh = internal global i32 0, align 4
@hf_afs_fs_status_linkcount = internal global i32 0, align 4
@hf_afs_fs_status_spare2 = internal global i32 0, align 4
@hf_afs_fs_status_spare3 = internal global i32 0, align 4
@hf_afs_fs_status_spare4 = internal global i32 0, align 4
@hf_afs_fs_status_synccounter = internal global i32 0, align 4
@hf_afs_fs_status_length = internal global i32 0, align 4
@ett_afs_status = internal global i32 0, align 4
@.str.937 = private unnamed_addr constant [3 x i8] c"%s\00", align 1

; Function Attrs: null_pointer_is_valid sspstrong uwtable
define internal void @OUT_TIMESECS(ptr noundef %0, i32 noundef %1) #0 {
  %3 = alloca ptr, align 8
  %4 = alloca i32, align 4
  store ptr %0, ptr %3, align 8
  store i32 %1, ptr %4, align 4
  %5 = load ptr, ptr %3, align 8
  %6 = call ptr @ptvcursor_tree(ptr noundef %5)
  %7 = load i32, ptr %4, align 4
  %8 = load ptr, ptr %3, align 8
  %9 = call ptr @ptvcursor_tvbuff(ptr noundef %8)
  %10 = load ptr, ptr %3, align 8
  %11 = call i32 @ptvcursor_current_offset(ptr noundef %10)
  %12 = call ptr @proto_tree_add_item(ptr noundef %6, i32 noundef %7, ptr noundef %9, i32 noundef %11, i32 noundef 4, i32 noundef 18)
  %13 = load ptr, ptr %3, align 8
  call void @ptvcursor_advance(ptr noundef %13, i32 noundef 4)
  ret void
}

; Function Attrs: null_pointer_is_valid sspstrong uwtable
define internal void @OUT_FS_AFSFetchStatus(ptr noundef %0, ptr noundef %1) #0 {
  %3 = alloca ptr, align 8
  %4 = alloca ptr, align 8
  store ptr %0, ptr %3, align 8
  store ptr %1, ptr %4, align 8
  %5 = load ptr, ptr %3, align 8
  %6 = load i32, ptr @ett_afs_status, align 4
  %7 = load ptr, ptr %4, align 8
  %8 = call ptr (ptr, i32, i32, ptr, ...) @ptvcursor_add_text_with_subtree(ptr noundef %5, i32 noundef -1, i32 noundef %6, ptr noundef @.str.937, ptr noundef %7)
  %9 = load ptr, ptr %3, align 8
  %10 = load i32, ptr @hf_afs_fs_status_interfaceversion, align 4
  %11 = call ptr @ptvcursor_add(ptr noundef %9, i32 noundef %10, i32 noundef 4, i32 noundef 0)
  %12 = load ptr, ptr %3, align 8
  %13 = load i32, ptr @hf_afs_fs_status_filetype, align 4
  %14 = call ptr @ptvcursor_add(ptr noundef %12, i32 noundef %13, i32 noundef 4, i32 noundef 0)
  %15 = load ptr, ptr %3, align 8
  %16 = load i32, ptr @hf_afs_fs_status_linkcount, align 4
  %17 = call ptr @ptvcursor_add(ptr noundef %15, i32 noundef %16, i32 noundef 4, i32 noundef 0)
  %18 = load ptr, ptr %3, align 8
  %19 = load i32, ptr @hf_afs_fs_status_length, align 4
  %20 = call ptr @ptvcursor_add(ptr noundef %18, i32 noundef %19, i32 noundef 4, i32 noundef 0)
  %21 = load ptr, ptr %3, align 8
  %22 = load i32, ptr @hf_afs_fs_status_dataversion, align 4
  %23 = call ptr @ptvcursor_add(ptr noundef %21, i32 noundef %22, i32 noundef 4, i32 noundef 0)
  %24 = load ptr, ptr %3, align 8
  %25 = load i32, ptr @hf_afs_fs_status_author, align 4
  %26 = call ptr @ptvcursor_add(ptr noundef %24, i32 noundef %25, i32 noundef 4, i32 noundef 0)
  %27 = load ptr, ptr %3, align 8
  %28 = load i32, ptr @hf_afs_fs_status_owner, align 4
  %29 = call ptr @ptvcursor_add(ptr noundef %27, i32 noundef %28, i32 noundef 4, i32 noundef 0)
  %30 = load ptr, ptr %3, align 8
  %31 = load i32, ptr @hf_afs_fs_status_calleraccess, align 4
  %32 = call ptr @ptvcursor_add(ptr noundef %30, i32 noundef %31, i32 noundef 4, i32 noundef 0)
  %33 = load ptr, ptr %3, align 8
  %34 = load i32, ptr @hf_afs_fs_status_anonymousaccess, align 4
  %35 = call ptr @ptvcursor_add(ptr noundef %33, i32 noundef %34, i32 noundef 4, i32 noundef 0)
  %36 = load ptr, ptr %3, align 8
  %37 = load i32, ptr @hf_afs_fs_status_mode, align 4
  %38 = call ptr @ptvcursor_add(ptr noundef %36, i32 noundef %37, i32 noundef 4, i32 noundef 0)
  %39 = load ptr, ptr %3, align 8
  %40 = load i32, ptr @hf_afs_fs_status_parentvnode, align 4
  %41 = call ptr @ptvcursor_add(ptr noundef %39, i32 noundef %40, i32 noundef 4, i32 noundef 0)
  %42 = load ptr, ptr %3, align 8
  %43 = load i32, ptr @hf_afs_fs_status_parentunique, align 4
  %44 = call ptr @ptvcursor_add(ptr noundef %42, i32 noundef %43, i32 noundef 4, i32 noundef 0)
  %45 = load ptr, ptr %3, align 8
  %46 = load i32, ptr @hf_afs_fs_status_segsize, align 4
  %47 = call ptr @ptvcursor_add(ptr noundef %45, i32 noundef %46, i32 noundef 4, i32 noundef 0)
  %48 = load ptr, ptr %3, align 8
  %49 = load i32, ptr @hf_afs_fs_status_clientmodtime, align 4
  call void @OUT_TIMESECS(ptr noundef %48, i32 noundef %49)
  %50 = load ptr, ptr %3, align 8
  %51 = load i32, ptr @hf_afs_fs_status_servermodtime, align 4
  call void @OUT_TIMESECS(ptr noundef %50, i32 noundef %51)
  %52 = load ptr, ptr %3, align 8
  %53 = load i32, ptr @hf_afs_fs_status_group, align 4
  %54 = call ptr @ptvcursor_add(ptr noundef %52, i32 noundef %53, i32 noundef 4, i32 noundef 0)
  %55 = load ptr, ptr %3, align 8
  %56 = load i32, ptr @hf_afs_fs_status_synccounter, align 4
  %57 = call ptr @ptvcursor_add(ptr noundef %55, i32 noundef %56, i32 noundef 4, i32 noundef 0)
  %58 = load ptr, ptr %3, align 8
  %59 = load i32, ptr @hf_afs_fs_status_dataversionhigh, align 4
  %60 = call ptr @ptvcursor_add(ptr noundef %58, i32 noundef %59, i32 noundef 4, i32 noundef 0)
  %61 = load ptr, ptr %3, align 8
  %62 = load i32, ptr @hf_afs_fs_status_spare2, align 4
  %63 = call ptr @ptvcursor_add(ptr noundef %61, i32 noundef %62, i32 noundef 4, i32 noundef 0)
  %64 = load ptr, ptr %3, align 8
  %65 = load i32, ptr @hf_afs_fs_status_spare3, align 4
  %66 = call ptr @ptvcursor_add(ptr noundef %64, i32 noundef %65, i32 noundef 4, i32 noundef 0)
  %67 = load ptr, ptr %3, align 8
  %68 = load i32, ptr @hf_afs_fs_status_spare4, align 4
  %69 = call ptr @ptvcursor_add(ptr noundef %67, i32 noundef %68, i32 noundef 4, i32 noundef 0)
  %70 = load ptr, ptr %3, align 8
  call void @ptvcursor_pop_subtree(ptr noundef %70)
  ret void
}