; Function Attrs: null_pointer_is_valid sspstrong uwtable
define internal fastcc void @OUT_FS_AFSFetchStatus(ptr noundef %0, ptr noundef %1) unnamed_addr #0 {
  %3 = load i32, ptr @ett_afs_status, align 4
  %4 = tail call ptr (ptr, i32, i32, ptr, ...) @ptvcursor_add_text_with_subtree(ptr noundef %0, i32 noundef -1, i32 noundef %3, ptr noundef nonnull @.str.937, ptr noundef %1)
  %5 = load i32, ptr @hf_afs_fs_status_interfaceversion, align 4
  %6 = tail call ptr @ptvcursor_add(ptr noundef %0, i32 noundef %5, i32 noundef 4, i32 noundef 0)
  %7 = load i32, ptr @hf_afs_fs_status_filetype, align 4
  %8 = tail call ptr @ptvcursor_add(ptr noundef %0, i32 noundef %7, i32 noundef 4, i32 noundef 0)
  %9 = load i32, ptr @hf_afs_fs_status_linkcount, align 4
  %10 = tail call ptr @ptvcursor_add(ptr noundef %0, i32 noundef %9, i32 noundef 4, i32 noundef 0)
  %11 = load i32, ptr @hf_afs_fs_status_length, align 4
  %12 = tail call ptr @ptvcursor_add(ptr noundef %0, i32 noundef %11, i32 noundef 4, i32 noundef 0)
  %13 = load i32, ptr @hf_afs_fs_status_dataversion, align 4
  %14 = tail call ptr @ptvcursor_add(ptr noundef %0, i32 noundef %13, i32 noundef 4, i32 noundef 0)
  %15 = load i32, ptr @hf_afs_fs_status_author, align 4
  %16 = tail call ptr @ptvcursor_add(ptr noundef %0, i32 noundef %15, i32 noundef 4, i32 noundef 0)
  %17 = load i32, ptr @hf_afs_fs_status_owner, align 4
  %18 = tail call ptr @ptvcursor_add(ptr noundef %0, i32 noundef %17, i32 noundef 4, i32 noundef 0)
  %19 = load i32, ptr @hf_afs_fs_status_calleraccess, align 4
  %20 = tail call ptr @ptvcursor_add(ptr noundef %0, i32 noundef %19, i32 noundef 4, i32 noundef 0)
  %21 = load i32, ptr @hf_afs_fs_status_anonymousaccess, align 4
  %22 = tail call ptr @ptvcursor_add(ptr noundef %0, i32 noundef %21, i32 noundef 4, i32 noundef 0)
  %23 = load i32, ptr @hf_afs_fs_status_mode, align 4
  %24 = tail call ptr @ptvcursor_add(ptr noundef %0, i32 noundef %23, i32 noundef 4, i32 noundef 0)
  %25 = load i32, ptr @hf_afs_fs_status_parentvnode, align 4
  %26 = tail call ptr @ptvcursor_add(ptr noundef %0, i32 noundef %25, i32 noundef 4, i32 noundef 0)
  %27 = load i32, ptr @hf_afs_fs_status_parentunique, align 4
  %28 = tail call ptr @ptvcursor_add(ptr noundef %0, i32 noundef %27, i32 noundef 4, i32 noundef 0)
  %29 = load i32, ptr @hf_afs_fs_status_segsize, align 4
  %30 = tail call ptr @ptvcursor_add(ptr noundef %0, i32 noundef %29, i32 noundef 4, i32 noundef 0)
  %31 = load i32, ptr @hf_afs_fs_status_clientmodtime, align 4
  %32 = tail call ptr @ptvcursor_tree(ptr noundef %0)
  %33 = tail call ptr @ptvcursor_tvbuff(ptr noundef %0)
  %34 = tail call i32 @ptvcursor_current_offset(ptr noundef %0)
  %35 = tail call ptr @proto_tree_add_item(ptr noundef %32, i32 noundef %31, ptr noundef %33, i32 noundef %34, i32 noundef 4, i32 noundef 18)
  tail call void @ptvcursor_advance(ptr noundef %0, i32 noundef 4)
  %36 = load i32, ptr @hf_afs_fs_status_servermodtime, align 4
  %37 = tail call ptr @ptvcursor_tree(ptr noundef %0)
  %38 = tail call ptr @ptvcursor_tvbuff(ptr noundef %0)
  %39 = tail call i32 @ptvcursor_current_offset(ptr noundef %0)
  %40 = tail call ptr @proto_tree_add_item(ptr noundef %37, i32 noundef %36, ptr noundef %38, i32 noundef %39, i32 noundef 4, i32 noundef 18)
  tail call void @ptvcursor_advance(ptr noundef %0, i32 noundef 4)
  %41 = load i32, ptr @hf_afs_fs_status_group, align 4
  %42 = tail call ptr @ptvcursor_add(ptr noundef %0, i32 noundef %41, i32 noundef 4, i32 noundef 0)
  %43 = load i32, ptr @hf_afs_fs_status_synccounter, align 4
  %44 = tail call ptr @ptvcursor_add(ptr noundef %0, i32 noundef %43, i32 noundef 4, i32 noundef 0)
  %45 = load i32, ptr @hf_afs_fs_status_dataversionhigh, align 4
  %46 = tail call ptr @ptvcursor_add(ptr noundef %0, i32 noundef %45, i32 noundef 4, i32 noundef 0)
  %47 = load i32, ptr @hf_afs_fs_status_spare2, align 4
  %48 = tail call ptr @ptvcursor_add(ptr noundef %0, i32 noundef %47, i32 noundef 4, i32 noundef 0)
  %49 = load i32, ptr @hf_afs_fs_status_spare3, align 4
  %50 = tail call ptr @ptvcursor_add(ptr noundef %0, i32 noundef %49, i32 noundef 4, i32 noundef 0)
  %51 = load i32, ptr @hf_afs_fs_status_spare4, align 4
  %52 = tail call ptr @ptvcursor_add(ptr noundef %0, i32 noundef %51, i32 noundef 4, i32 noundef 0)
  tail call void @ptvcursor_pop_subtree(ptr noundef %0)
  ret void
}